	.section	__TEXT,__text,regular,pure_instructions
	.build_version macos, 10, 15	sdk_version 10, 15, 6
	.globl	_my_gets                ## -- Begin function my_gets
	.p2align	4, 0x90
_my_gets:                               ## @my_gets
Lfunc_begin0:
	.file	1 "/Users/jamessanders/Desktop/2803ICT/A1" "main.c"
	.loc	1 29 0                  ## main.c:29:0
	.cfi_startproc
## %bb.0:
	pushq	%rbp
	.cfi_def_cfa_offset 16
	.cfi_offset %rbp, -16
	movq	%rsp, %rbp
	.cfi_def_cfa_register %rbp
	subq	$1136, %rsp             ## imm = 0x470
	movq	___stack_chk_guard@GOTPCREL(%rip), %rax
	movq	(%rax), %rax
	movq	%rax, -8(%rbp)
	movq	%rdi, -1104(%rbp)
Ltmp0:
	.loc	1 32 24 prologue_end    ## main.c:32:24
	movq	-1104(%rbp), %rdi
	.loc	1 32 18 is_stmt 0       ## main.c:32:18
	leaq	L_.str(%rip), %rsi
	callq	_fopen
	.loc	1 32 11                 ## main.c:32:11
	movq	%rax, -1112(%rbp)
Ltmp1:
	.loc	1 34 14 is_stmt 1       ## main.c:34:14
	cmpq	$0, -1112(%rbp)
Ltmp2:
	.loc	1 34 9 is_stmt 0        ## main.c:34:9
	jne	LBB0_2
## %bb.1:
Ltmp3:
	.loc	1 36 9 is_stmt 1        ## main.c:36:9
	leaq	L_.str.1(%rip), %rdi
	movb	$0, %al
	callq	_printf
	.loc	1 37 9                  ## main.c:37:9
	movl	$-1, -1092(%rbp)
	jmp	LBB0_7
Ltmp4:
LBB0_2:
	.loc	1 39 5                  ## main.c:39:5
	jmp	LBB0_3
LBB0_3:                                 ## =>This Inner Loop Header: Depth=1
	.loc	1 0 5 is_stmt 0         ## main.c:0:5
	leaq	-64(%rbp), %rdi
Ltmp5:
	.loc	1 41 61 is_stmt 1       ## main.c:41:61
	movq	-1112(%rbp), %rcx
	.loc	1 41 29 is_stmt 0       ## main.c:41:29
	movl	$1, %esi
	movl	$40, %edx
	callq	_fread
	leaq	-64(%rbp), %rsi
	.loc	1 41 16                 ## main.c:41:16
	movq	%rax, -1128(%rbp)
	.loc	1 43 20 is_stmt 1       ## main.c:43:20
	movb	$0, -23(%rbp)
	.loc	1 44 9                  ## main.c:44:9
	leaq	L_.str.2(%rip), %rdi
	movb	$0, %al
	callq	_printf
Ltmp6:
	.loc	1 45 23                 ## main.c:45:23
	cmpq	$40, -1128(%rbp)
Ltmp7:
	.loc	1 45 12 is_stmt 0       ## main.c:45:12
	je	LBB0_5
## %bb.4:
Ltmp8:
	.loc	1 46 13 is_stmt 1       ## main.c:46:13
	leaq	L_.str.2(%rip), %rdi
	leaq	L_.str.3(%rip), %rsi
	movb	$0, %al
	callq	_printf
	.loc	1 47 13                 ## main.c:47:13
	jmp	LBB0_6
Ltmp9:
LBB0_5:                                 ##   in Loop: Header=BB0_3 Depth=1
	.loc	1 0 13 is_stmt 0        ## main.c:0:13
	xorl	%esi, %esi
	leaq	-64(%rbp), %rdi
	.loc	1 52 9 is_stmt 1        ## main.c:52:9
	movl	$41, %edx
	callq	_memset
	.loc	1 54 9                  ## main.c:54:9
	leaq	L_.str.4(%rip), %rdi
	leaq	-1129(%rbp), %rsi
Ltmp10:
	##DEBUG_VALUE: c <- [$rsi+0]
	movb	$0, %al
	callq	_scanf
Ltmp11:
	.loc	1 39 5                  ## main.c:39:5
	jmp	LBB0_3
LBB0_6:
	.loc	1 58 12                 ## main.c:58:12
	movq	-1112(%rbp), %rdi
	.loc	1 58 5 is_stmt 0        ## main.c:58:5
	callq	_fclose
	.loc	1 59 5 is_stmt 1        ## main.c:59:5
	movl	$0, -1092(%rbp)
LBB0_7:
	.loc	1 60 1                  ## main.c:60:1
	movl	-1092(%rbp), %eax
	movq	___stack_chk_guard@GOTPCREL(%rip), %rcx
	movq	(%rcx), %rcx
	movq	-8(%rbp), %rdx
	cmpq	%rdx, %rcx
	movl	%eax, -1136(%rbp)       ## 4-byte Spill
	jne	LBB0_9
## %bb.8:
	.loc	1 0 1 is_stmt 0         ## main.c:0:1
	movl	-1136(%rbp), %eax       ## 4-byte Reload
	.loc	1 60 1                  ## main.c:60:1
	addq	$1136, %rsp             ## imm = 0x470
	popq	%rbp
	retq
LBB0_9:
	.loc	1 0 0                   ## main.c:0:0
	callq	___stack_chk_fail
	ud2
Ltmp12:
Lfunc_end0:
	.cfi_endproc
                                        ## -- End function
	.globl	_get_cpu                ## -- Begin function get_cpu
	.p2align	4, 0x90
_get_cpu:                               ## @get_cpu
Lfunc_begin1:
	.loc	1 62 0 is_stmt 1        ## main.c:62:0
	.cfi_startproc
## %bb.0:
	pushq	%rbp
	.cfi_def_cfa_offset 16
	.cfi_offset %rbp, -16
	movq	%rsp, %rbp
	.cfi_def_cfa_register %rbp
	subq	$1312, %rsp             ## imm = 0x520
	movq	___stack_chk_guard@GOTPCREL(%rip), %rax
	movq	(%rax), %rax
	movq	%rax, -8(%rbp)
Ltmp13:
	.loc	1 64 5 prologue_end     ## main.c:64:5
	leaq	-1288(%rbp), %rdi
Ltmp14:
	##DEBUG_VALUE: get_cpu:uts <- [$rdi+0]
	callq	_uname
Ltmp15:
	.loc	1 0 5 is_stmt 0         ## main.c:0:5
	leaq	-1288(%rbp), %rcx
	.loc	1 65 62 is_stmt 1       ## main.c:65:62
	movq	%rcx, %rdx
	addq	$1024, %rdx             ## imm = 0x400
	.loc	1 65 5 is_stmt 0        ## main.c:65:5
	leaq	L_.str.5(%rip), %rdi
	movq	%rcx, %rsi
	movl	%eax, -1292(%rbp)       ## 4-byte Spill
	movb	$0, %al
	callq	_printf
	.loc	1 66 38 is_stmt 1       ## main.c:66:38
	leaq	-1288(%rbp), %rcx
	addq	$512, %rcx              ## imm = 0x200
	.loc	1 66 5 is_stmt 0        ## main.c:66:5
	leaq	L_.str.6(%rip), %rdi
	movq	%rcx, %rsi
	movl	%eax, -1296(%rbp)       ## 4-byte Spill
	movb	$0, %al
	callq	_printf
	.loc	1 67 35 is_stmt 1       ## main.c:67:35
	leaq	-1288(%rbp), %rcx
	addq	$768, %rcx              ## imm = 0x300
	.loc	1 67 5 is_stmt 0        ## main.c:67:5
	leaq	L_.str.7(%rip), %rdi
	movq	%rcx, %rsi
	movl	%eax, -1300(%rbp)       ## 4-byte Spill
	movb	$0, %al
	callq	_printf
	movq	___stack_chk_guard@GOTPCREL(%rip), %rcx
	movq	(%rcx), %rcx
	movq	-8(%rbp), %rdx
	cmpq	%rdx, %rcx
	jne	LBB1_2
## %bb.1:
	.loc	1 68 1 is_stmt 1        ## main.c:68:1
	addq	$1312, %rsp             ## imm = 0x520
	popq	%rbp
	retq
LBB1_2:
	.loc	1 0 0 is_stmt 0         ## main.c:0:0
	callq	___stack_chk_fail
	ud2
Ltmp16:
Lfunc_end1:
	.cfi_endproc
                                        ## -- End function
	.globl	_print_sys              ## -- Begin function print_sys
	.p2align	4, 0x90
_print_sys:                             ## @print_sys
Lfunc_begin2:
	.loc	1 71 0 is_stmt 1        ## main.c:71:0
	.cfi_startproc
## %bb.0:
	pushq	%rbp
	.cfi_def_cfa_offset 16
	.cfi_offset %rbp, -16
	movq	%rsp, %rbp
	.cfi_def_cfa_register %rbp
	subq	$16, %rsp
Ltmp17:
	.loc	1 73 5 prologue_end     ## main.c:73:5
	leaq	L_.str.8(%rip), %rdi
	movb	$0, %al
	callq	_printf
	movl	%eax, -4(%rbp)          ## 4-byte Spill
	.loc	1 86 5                  ## main.c:86:5
	callq	_get_cpu
	.loc	1 87 1                  ## main.c:87:1
	addq	$16, %rsp
	popq	%rbp
	retq
Ltmp18:
Lfunc_end2:
	.cfi_endproc
                                        ## -- End function
	.globl	_path                   ## -- Begin function path
	.p2align	4, 0x90
_path:                                  ## @path
Lfunc_begin3:
	.loc	1 89 0                  ## main.c:89:0
	.cfi_startproc
## %bb.0:
	pushq	%rbp
	.cfi_def_cfa_offset 16
	.cfi_offset %rbp, -16
	movq	%rsp, %rbp
	.cfi_def_cfa_register %rbp
	subq	$1040, %rsp             ## imm = 0x410
	leaq	-1040(%rbp), %rdi
	movq	___stack_chk_guard@GOTPCREL(%rip), %rax
	movq	(%rax), %rax
	movq	%rax, -8(%rbp)
Ltmp19:
	##DEBUG_VALUE: path:cwd <- [$rdi+0]
	.loc	1 91 9 prologue_end     ## main.c:91:9
	movl	$1024, %esi             ## imm = 0x400
	callq	_getcwd
Ltmp20:
	.loc	1 91 34 is_stmt 0       ## main.c:91:34
	cmpq	$0, %rax
Ltmp21:
	.loc	1 91 9                  ## main.c:91:9
	je	LBB3_2
## %bb.1:
	.loc	1 0 9                   ## main.c:0:9
	leaq	-1040(%rbp), %rsi
Ltmp22:
	.loc	1 93 9 is_stmt 1        ## main.c:93:9
	leaq	L_.str.9(%rip), %rdi
	movb	$0, %al
	callq	_printf
	.loc	1 94 5                  ## main.c:94:5
	jmp	LBB3_3
Ltmp23:
LBB3_2:
	.loc	1 97 9                  ## main.c:97:9
	leaq	L_.str.10(%rip), %rdi
	movb	$0, %al
	callq	_printf
Ltmp24:
LBB3_3:
	.loc	1 0 9 is_stmt 0         ## main.c:0:9
	movq	___stack_chk_guard@GOTPCREL(%rip), %rax
	movq	(%rax), %rax
	movq	-8(%rbp), %rcx
	cmpq	%rcx, %rax
	jne	LBB3_5
## %bb.4:
	.loc	1 99 1 is_stmt 1        ## main.c:99:1
	addq	$1040, %rsp             ## imm = 0x410
	popq	%rbp
	retq
LBB3_5:
	.loc	1 0 0 is_stmt 0         ## main.c:0:0
	callq	___stack_chk_fail
	ud2
Ltmp25:
Lfunc_end3:
	.cfi_endproc
                                        ## -- End function
	.globl	_print_time             ## -- Begin function print_time
	.p2align	4, 0x90
_print_time:                            ## @print_time
Lfunc_begin4:
	.loc	1 102 0 is_stmt 1       ## main.c:102:0
	.cfi_startproc
## %bb.0:
	pushq	%rbp
	.cfi_def_cfa_offset 16
	.cfi_offset %rbp, -16
	movq	%rsp, %rbp
	.cfi_def_cfa_register %rbp
	pushq	%rbx
	subq	$72, %rsp
	.cfi_offset %rbx, -24
	xorl	%eax, %eax
	movl	%eax, %edi
Ltmp26:
	.loc	1 103 16 prologue_end   ## main.c:103:16
	callq	_time
	.loc	1 103 12 is_stmt 0      ## main.c:103:12
	movq	%rax, -16(%rbp)
	.loc	1 104 21 is_stmt 1      ## main.c:104:21
	leaq	-16(%rbp), %rdi
	callq	_localtime
	.loc	1 104 20 is_stmt 0      ## main.c:104:20
	leaq	-72(%rbp), %rcx
	movq	%rcx, %rdi
	movq	%rax, %rsi
	movl	$56, %edx
	callq	_memcpy
	.loc	1 105 58 is_stmt 1      ## main.c:105:58
	movl	-52(%rbp), %r8d
	.loc	1 105 66 is_stmt 0      ## main.c:105:66
	addl	$1900, %r8d             ## imm = 0x76C
	.loc	1 105 77                ## main.c:105:77
	movl	-56(%rbp), %r9d
	.loc	1 105 84                ## main.c:105:84
	addl	$1, %r9d
	.loc	1 105 92                ## main.c:105:92
	movl	-60(%rbp), %ecx
	.loc	1 105 104               ## main.c:105:104
	movl	-64(%rbp), %r10d
	.loc	1 105 116               ## main.c:105:116
	movl	-68(%rbp), %r11d
	.loc	1 105 127               ## main.c:105:127
	movl	-72(%rbp), %ebx
	.loc	1 105 5                 ## main.c:105:5
	leaq	L_.str.11(%rip), %rdi
	movl	%r8d, %esi
	movl	%r9d, %edx
	movl	%r10d, %r8d
	movl	%r11d, %r9d
	movl	%ebx, (%rsp)
	movb	$0, %al
	callq	_printf
	.loc	1 106 1 is_stmt 1       ## main.c:106:1
	addq	$72, %rsp
	popq	%rbx
	popq	%rbp
	retq
Ltmp27:
Lfunc_end4:
	.cfi_endproc
                                        ## -- End function
	.globl	_calc_expr              ## -- Begin function calc_expr
	.p2align	4, 0x90
_calc_expr:                             ## @calc_expr
Lfunc_begin5:
	.loc	1 108 0                 ## main.c:108:0
	.cfi_startproc
## %bb.0:
	pushq	%rbp
	.cfi_def_cfa_offset 16
	.cfi_offset %rbp, -16
	movq	%rsp, %rbp
	.cfi_def_cfa_register %rbp
Ltmp28:
	.loc	1 109 1 prologue_end    ## main.c:109:1
	popq	%rbp
	retq
Ltmp29:
Lfunc_end5:
	.cfi_endproc
                                        ## -- End function
	.globl	_put                    ## -- Begin function put
	.p2align	4, 0x90
_put:                                   ## @put
Lfunc_begin6:
	.loc	1 120 0                 ## main.c:120:0
	.cfi_startproc
## %bb.0:
	pushq	%rbp
	.cfi_def_cfa_offset 16
	.cfi_offset %rbp, -16
	movq	%rsp, %rbp
	.cfi_def_cfa_register %rbp
	subq	$2096, %rsp             ## imm = 0x830
	leaq	-1040(%rbp), %rax
	movq	___stack_chk_guard@GOTPCREL(%rip), %rcx
	movq	(%rcx), %rcx
	movq	%rcx, -8(%rbp)
	movq	%rdi, -2072(%rbp)
	movq	%rsi, -2080(%rbp)
Ltmp30:
	##DEBUG_VALUE: put:cwd <- [$rax+0]
	.loc	1 124 9 prologue_end    ## main.c:124:9
	movq	%rax, %rdi
	movl	$1024, %esi             ## imm = 0x400
	callq	_getcwd
Ltmp31:
	.loc	1 124 34 is_stmt 0      ## main.c:124:34
	cmpq	$0, %rax
Ltmp32:
	.loc	1 124 9                 ## main.c:124:9
	je	LBB6_2
## %bb.1:
	.loc	1 0 9                   ## main.c:0:9
	leaq	-1040(%rbp), %rsi
	leaq	-2064(%rbp), %rdi
Ltmp33:
	.loc	1 127 9 is_stmt 1       ## main.c:127:9
	movl	$1024, %edx             ## imm = 0x400
	callq	___strcpy_chk
Ltmp34:
LBB6_2:
	.loc	1 129 11                ## main.c:129:11
	movq	-2072(%rbp), %rdi
	.loc	1 129 5 is_stmt 0       ## main.c:129:5
	movl	$511, %esi              ## imm = 0x1FF
	callq	_mkdir
Ltmp35:
	.loc	1 130 15 is_stmt 1      ## main.c:130:15
	movq	-2072(%rbp), %rdi
	.loc	1 130 9 is_stmt 0       ## main.c:130:9
	movl	$511, %esi              ## imm = 0x1FF
	movl	%eax, -2084(%rbp)       ## 4-byte Spill
	callq	_mkdir
	.loc	1 130 30                ## main.c:130:30
	cmpl	$-1, %eax
Ltmp36:
	.loc	1 130 9                 ## main.c:130:9
	jne	LBB6_4
## %bb.3:
Ltmp37:
	.loc	1 132 9 is_stmt 1       ## main.c:132:9
	leaq	L_.str.12(%rip), %rdi
	callq	_perror
	.loc	1 133 9                 ## main.c:133:9
	jmp	LBB6_5
Ltmp38:
LBB6_4:
	.loc	1 0 9 is_stmt 0         ## main.c:0:9
	leaq	-2064(%rbp), %rsi
	.loc	1 136 5 is_stmt 1       ## main.c:136:5
	leaq	L_.str.13(%rip), %rdi
	movb	$0, %al
	callq	_printf
LBB6_5:
	.loc	1 0 5 is_stmt 0         ## main.c:0:5
	movq	___stack_chk_guard@GOTPCREL(%rip), %rax
	movq	(%rax), %rax
	movq	-8(%rbp), %rcx
	cmpq	%rcx, %rax
	jne	LBB6_7
## %bb.6:
	.loc	1 137 1 is_stmt 1       ## main.c:137:1
	addq	$2096, %rsp             ## imm = 0x830
	popq	%rbp
	retq
LBB6_7:
	.loc	1 0 0 is_stmt 0         ## main.c:0:0
	callq	___stack_chk_fail
	ud2
Ltmp39:
Lfunc_end6:
	.cfi_endproc
                                        ## -- End function
	.globl	_copy_file              ## -- Begin function copy_file
	.p2align	4, 0x90
_copy_file:                             ## @copy_file
Lfunc_begin7:
	.loc	1 140 0 is_stmt 1       ## main.c:140:0
	.cfi_startproc
## %bb.0:
	pushq	%rbp
	.cfi_def_cfa_offset 16
	.cfi_offset %rbp, -16
	movq	%rsp, %rbp
	.cfi_def_cfa_register %rbp
	subq	$1120, %rsp             ## imm = 0x460
	movq	___stack_chk_guard@GOTPCREL(%rip), %rax
	movq	(%rax), %rax
	movq	%rax, -8(%rbp)
	movq	%rdi, -1056(%rbp)
	movq	%rsi, -1064(%rbp)
Ltmp40:
	.loc	1 146 20 prologue_end   ## main.c:146:20
	movq	-1056(%rbp), %rdi
	.loc	1 146 14 is_stmt 0      ## main.c:146:14
	leaq	L_.str(%rip), %rsi
	callq	_fopen
	.loc	1 146 12                ## main.c:146:12
	movq	%rax, -1072(%rbp)
Ltmp41:
	.loc	1 147 16 is_stmt 1      ## main.c:147:16
	cmpq	$0, -1072(%rbp)
Ltmp42:
	.loc	1 147 9 is_stmt 0       ## main.c:147:9
	jne	LBB7_2
## %bb.1:
Ltmp43:
	.loc	1 150 9 is_stmt 1       ## main.c:150:9
	movl	$1, -1044(%rbp)
	jmp	LBB7_8
Ltmp44:
LBB7_2:
	.loc	1 0 9 is_stmt 0         ## main.c:0:9
	leaq	-1040(%rbp), %rdi
	.loc	1 152 5 is_stmt 1       ## main.c:152:5
	movq	-1064(%rbp), %r8
	movq	-1056(%rbp), %rax
	movq	%rdi, -1096(%rbp)       ## 8-byte Spill
	movq	%rax, %rdi
	movq	%r8, -1104(%rbp)        ## 8-byte Spill
	callq	_basename
	xorl	%esi, %esi
	movq	-1096(%rbp), %rdi       ## 8-byte Reload
	movl	$1024, %edx             ## imm = 0x400
	leaq	L_.str.14(%rip), %rcx
	movq	-1104(%rbp), %r8        ## 8-byte Reload
	movq	%rax, %r9
	movb	$0, %al
	callq	___sprintf_chk
	leaq	-1040(%rbp), %rdi
	.loc	1 154 15                ## main.c:154:15
	leaq	L_.str.15(%rip), %rsi
	movl	%eax, -1108(%rbp)       ## 4-byte Spill
	callq	_fopen
	.loc	1 154 13 is_stmt 0      ## main.c:154:13
	movq	%rax, -1080(%rbp)
Ltmp45:
	.loc	1 155 16 is_stmt 1      ## main.c:155:16
	cmpq	$0, -1080(%rbp)
Ltmp46:
	.loc	1 155 8 is_stmt 0       ## main.c:155:8
	jne	LBB7_4
## %bb.3:
Ltmp47:
	.loc	1 157 9 is_stmt 1       ## main.c:157:9
	leaq	L_.str.16(%rip), %rdi
	movb	$0, %al
	callq	_printf
	.loc	1 158 9                 ## main.c:158:9
	movl	$-1, -1044(%rbp)
	jmp	LBB7_8
Ltmp48:
LBB7_4:
	.loc	1 160 15                ## main.c:160:15
	movq	-1072(%rbp), %rdi
	.loc	1 160 9 is_stmt 0       ## main.c:160:9
	callq	_fgetc
                                        ## kill: def $al killed $al killed $eax
	.loc	1 160 7                 ## main.c:160:7
	movb	%al, -1081(%rbp)
LBB7_5:                                 ## =>This Inner Loop Header: Depth=1
	.loc	1 161 12 is_stmt 1      ## main.c:161:12
	movsbl	-1081(%rbp), %eax
	.loc	1 161 14 is_stmt 0      ## main.c:161:14
	cmpl	$-1, %eax
	.loc	1 161 5                 ## main.c:161:5
	je	LBB7_7
## %bb.6:                               ##   in Loop: Header=BB7_5 Depth=1
Ltmp49:
	.loc	1 164 19 is_stmt 1      ## main.c:164:19
	movsbl	-1081(%rbp), %edi
	.loc	1 164 22 is_stmt 0      ## main.c:164:22
	movq	-1080(%rbp), %rsi
	.loc	1 164 13                ## main.c:164:13
	callq	_fputc
	.loc	1 165 23 is_stmt 1      ## main.c:165:23
	movq	-1072(%rbp), %rdi
	movl	%eax, -1112(%rbp)       ## 4-byte Spill
	.loc	1 165 17 is_stmt 0      ## main.c:165:17
	callq	_fgetc
                                        ## kill: def $al killed $al killed $eax
	.loc	1 165 15                ## main.c:165:15
	movb	%al, -1081(%rbp)
Ltmp50:
	.loc	1 161 5 is_stmt 1       ## main.c:161:5
	jmp	LBB7_5
LBB7_7:
	.loc	1 169 12                ## main.c:169:12
	movq	-1080(%rbp), %rdi
	.loc	1 169 5 is_stmt 0       ## main.c:169:5
	callq	_fclose
	.loc	1 170 12 is_stmt 1      ## main.c:170:12
	movq	-1072(%rbp), %rdi
	movl	%eax, -1116(%rbp)       ## 4-byte Spill
	.loc	1 170 5 is_stmt 0       ## main.c:170:5
	callq	_fclose
	.loc	1 171 5 is_stmt 1       ## main.c:171:5
	movl	$0, -1044(%rbp)
LBB7_8:
	.loc	1 173 1                 ## main.c:173:1
	movl	-1044(%rbp), %eax
	movq	___stack_chk_guard@GOTPCREL(%rip), %rcx
	movq	(%rcx), %rcx
	movq	-8(%rbp), %rdx
	cmpq	%rdx, %rcx
	movl	%eax, -1120(%rbp)       ## 4-byte Spill
	jne	LBB7_10
## %bb.9:
	.loc	1 0 1 is_stmt 0         ## main.c:0:1
	movl	-1120(%rbp), %eax       ## 4-byte Reload
	.loc	1 173 1                 ## main.c:173:1
	addq	$1120, %rsp             ## imm = 0x460
	popq	%rbp
	retq
LBB7_10:
	.loc	1 0 0                   ## main.c:0:0
	callq	___stack_chk_fail
	ud2
Ltmp51:
Lfunc_end7:
	.cfi_endproc
                                        ## -- End function
	.globl	_shell                  ## -- Begin function shell
	.p2align	4, 0x90
_shell:                                 ## @shell
Lfunc_begin8:
	.loc	1 177 0 is_stmt 1       ## main.c:177:0
	.cfi_startproc
## %bb.0:
	pushq	%rbp
	.cfi_def_cfa_offset 16
	.cfi_offset %rbp, -16
	movq	%rsp, %rbp
	.cfi_def_cfa_register %rbp
	subq	$64, %rsp
LBB8_1:                                 ## =>This Inner Loop Header: Depth=1
Ltmp52:
	.loc	1 179 16 prologue_end   ## main.c:179:16
	movq	$262144, -8(%rbp)       ## imm = 0x40000
	.loc	1 180 31                ## main.c:180:31
	movq	-8(%rbp), %rdi
	.loc	1 180 24 is_stmt 0      ## main.c:180:24
	callq	_malloc
	.loc	1 180 15                ## main.c:180:15
	movq	%rax, -16(%rbp)
	.loc	1 181 22 is_stmt 1      ## main.c:181:22
	movq	-16(%rbp), %rsi
	.loc	1 181 9 is_stmt 0       ## main.c:181:9
	leaq	L_.str.2(%rip), %rdi
	movb	$0, %al
	callq	_printf
	movq	___stdinp@GOTPCREL(%rip), %rcx
	.loc	1 186 30 is_stmt 1      ## main.c:186:30
	movq	(%rcx), %rdx
	.loc	1 186 9 is_stmt 0       ## main.c:186:9
	leaq	-16(%rbp), %rdi
	leaq	-8(%rbp), %rsi
	movl	%eax, -44(%rbp)         ## 4-byte Spill
	callq	_getline
Ltmp53:
	.loc	1 188 27 is_stmt 1      ## main.c:188:27
	movq	-16(%rbp), %rdi
	.loc	1 188 20 is_stmt 0      ## main.c:188:20
	movl	$10, %esi
	movq	%rax, -56(%rbp)         ## 8-byte Spill
	callq	_strchr
	.loc	1 188 18                ## main.c:188:18
	movq	%rax, -32(%rbp)
	.loc	1 188 42                ## main.c:188:42
	cmpq	$0, %rax
Ltmp54:
	.loc	1 188 13                ## main.c:188:13
	je	LBB8_3
## %bb.2:                               ##   in Loop: Header=BB8_1 Depth=1
Ltmp55:
	.loc	1 189 14 is_stmt 1      ## main.c:189:14
	movq	-32(%rbp), %rax
	.loc	1 189 18 is_stmt 0      ## main.c:189:18
	movb	$0, (%rax)
Ltmp56:
LBB8_3:                                 ##   in Loop: Header=BB8_1 Depth=1
	.loc	1 194 20 is_stmt 1      ## main.c:194:20
	movq	-16(%rbp), %rdi
	.loc	1 194 13 is_stmt 0      ## main.c:194:13
	leaq	L_.str.12(%rip), %rsi
	callq	_strcmp
	.loc	1 194 32                ## main.c:194:32
	cmpl	$0, %eax
Ltmp57:
	.loc	1 194 13                ## main.c:194:13
	jne	LBB8_5
## %bb.4:                               ##   in Loop: Header=BB8_1 Depth=1
Ltmp58:
	.loc	1 195 13 is_stmt 1      ## main.c:195:13
	jmp	LBB8_11
Ltmp59:
LBB8_5:                                 ##   in Loop: Header=BB8_1 Depth=1
	.loc	1 198 24                ## main.c:198:24
	movq	-16(%rbp), %rdi
	.loc	1 198 17 is_stmt 0      ## main.c:198:17
	leaq	L_.str.17(%rip), %rsi
	callq	_strtok
	.loc	1 198 15                ## main.c:198:15
	movq	%rax, -24(%rbp)
Ltmp60:
	.loc	1 207 20 is_stmt 1      ## main.c:207:20
	movq	-24(%rbp), %rdi
	.loc	1 207 13 is_stmt 0      ## main.c:207:13
	leaq	L_.str.18(%rip), %rsi
	callq	_strcmp
	.loc	1 207 35                ## main.c:207:35
	cmpl	$0, %eax
Ltmp61:
	.loc	1 207 13                ## main.c:207:13
	jne	LBB8_7
## %bb.6:
	.loc	1 0 13                  ## main.c:0:13
	xorl	%eax, %eax
Ltmp62:
	.loc	1 209 13 is_stmt 1      ## main.c:209:13
	addq	$64, %rsp
	popq	%rbp
	retq
Ltmp63:
LBB8_7:                                 ##   in Loop: Header=BB8_1 Depth=1
	.loc	1 211 25                ## main.c:211:25
	movq	-24(%rbp), %rdi
	.loc	1 211 18 is_stmt 0      ## main.c:211:18
	leaq	L_.str.19(%rip), %rsi
	callq	_strcmp
	.loc	1 211 39                ## main.c:211:39
	cmpl	$0, %eax
Ltmp64:
	.loc	1 211 17                ## main.c:211:17
	jne	LBB8_9
## %bb.8:                               ##   in Loop: Header=BB8_1 Depth=1
Ltmp65:
	.loc	1 213 13 is_stmt 1      ## main.c:213:13
	leaq	L_.str.20(%rip), %rdi
	movb	$0, %al
	callq	_printf
	xorl	%ecx, %ecx
	movl	%ecx, %edi
	.loc	1 214 23                ## main.c:214:23
	leaq	L_.str.17(%rip), %rsi
	movl	%eax, -60(%rbp)         ## 4-byte Spill
	callq	_strtok
	.loc	1 214 19 is_stmt 0      ## main.c:214:19
	movq	%rax, -40(%rbp)
	.loc	1 215 21 is_stmt 1      ## main.c:215:21
	movq	-40(%rbp), %rdi
	.loc	1 215 13 is_stmt 0      ## main.c:215:13
	callq	_my_gets
Ltmp66:
LBB8_9:                                 ##   in Loop: Header=BB8_1 Depth=1
	.loc	1 0 13                  ## main.c:0:13
	jmp	LBB8_10
LBB8_10:                                ##   in Loop: Header=BB8_1 Depth=1
	.loc	1 207 38 is_stmt 1      ## main.c:207:38
	jmp	LBB8_11
Ltmp67:
LBB8_11:                                ##   in Loop: Header=BB8_1 Depth=1
	##DEBUG_LABEL: cleanup
	.loc	1 221 14                ## main.c:221:14
	movq	-16(%rbp), %rdi
	.loc	1 221 9 is_stmt 0       ## main.c:221:9
	callq	_free
Ltmp68:
	.loc	1 178 5 is_stmt 1       ## main.c:178:5
	jmp	LBB8_1
Ltmp69:
Lfunc_end8:
	.cfi_endproc
                                        ## -- End function
	.globl	_main                   ## -- Begin function main
	.p2align	4, 0x90
_main:                                  ## @main
Lfunc_begin9:
	.loc	1 226 0                 ## main.c:226:0
	.cfi_startproc
## %bb.0:
	pushq	%rbp
	.cfi_def_cfa_offset 16
	.cfi_offset %rbp, -16
	movq	%rsp, %rbp
	.cfi_def_cfa_register %rbp
	subq	$32, %rsp
	movl	$0, -4(%rbp)
	movl	%edi, -8(%rbp)
	movq	%rsi, -16(%rbp)
Ltmp70:
	.loc	1 243 5 prologue_end    ## main.c:243:5
	leaq	L_.str.21(%rip), %rdi
	movb	$0, %al
	callq	_printf
	movl	%eax, -20(%rbp)         ## 4-byte Spill
	.loc	1 245 5                 ## main.c:245:5
	callq	_shell
	xorl	%ecx, %ecx
	movl	%eax, -24(%rbp)         ## 4-byte Spill
	.loc	1 246 5                 ## main.c:246:5
	movl	%ecx, %eax
	addq	$32, %rsp
	popq	%rbp
	retq
Ltmp71:
Lfunc_end9:
	.cfi_endproc
                                        ## -- End function
	.section	__TEXT,__cstring,cstring_literals
L_.str:                                 ## @.str
	.asciz	"r"

L_.str.1:                               ## @.str.1
	.asciz	"Error opening file\n"

L_.str.2:                               ## @.str.2
	.asciz	"%s"

L_.str.3:                               ## @.str.3
	.asciz	"\n"

L_.str.4:                               ## @.str.4
	.asciz	"%c"

L_.str.5:                               ## @.str.5
	.asciz	"System is %s on %s hardware\n"

L_.str.6:                               ## @.str.6
	.asciz	"OS Release is %s\n"

L_.str.7:                               ## @.str.7
	.asciz	"OS Version is\n"

L_.str.8:                               ## @.str.8
	.asciz	"This is a MAC_OS operating system\n"

L_.str.9:                               ## @.str.9
	.asciz	"Dir: %s"

L_.str.10:                              ## @.str.10
	.asciz	"Error retrieving directory"

L_.str.11:                              ## @.str.11
	.asciz	"Date is: %d/%d/%d, Time is: %d:%d:%d \n"

L_.str.12:                              ## @.str.12
	.space	1

L_.str.13:                              ## @.str.13
	.asciz	"%s\n"

L_.str.14:                              ## @.str.14
	.asciz	"%s/%s"

L_.str.15:                              ## @.str.15
	.asciz	"w"

L_.str.16:                              ## @.str.16
	.asciz	"Cannot open file\n"

L_.str.17:                              ## @.str.17
	.asciz	" "

L_.str.18:                              ## @.str.18
	.asciz	"quit"

L_.str.19:                              ## @.str.19
	.asciz	"get"

L_.str.20:                              ## @.str.20
	.asciz	"In the get command"

L_.str.21:                              ## @.str.21
	.asciz	"started"

	.file	2 "/Applications/Xcode.app/Contents/Developer/Platforms/MacOSX.platform/Developer/SDKs/MacOSX.sdk/usr/include" "_stdio.h"
	.file	3 "/Applications/Xcode.app/Contents/Developer/Platforms/MacOSX.platform/Developer/SDKs/MacOSX.sdk/usr/include/i386" "_types.h"
	.file	4 "/Applications/Xcode.app/Contents/Developer/Platforms/MacOSX.platform/Developer/SDKs/MacOSX.sdk/usr/include/sys" "_types.h"
	.file	5 "/Applications/Xcode.app/Contents/Developer/Platforms/MacOSX.platform/Developer/SDKs/MacOSX.sdk/usr/include/sys/_types" "_size_t.h"
	.file	6 "/Applications/Xcode.app/Contents/Developer/Platforms/MacOSX.platform/Developer/SDKs/MacOSX.sdk/usr/include/sys" "utsname.h"
	.file	7 "/Applications/Xcode.app/Contents/Developer/Platforms/MacOSX.platform/Developer/SDKs/MacOSX.sdk/usr/include/sys/_types" "_time_t.h"
	.file	8 "/Applications/Xcode.app/Contents/Developer/Platforms/MacOSX.platform/Developer/SDKs/MacOSX.sdk/usr/include" "time.h"